target datalayout = "e-m:e-p270:32:32-p271:32:32-p272:64:64-i64:64-i128:128-f80:128-n8:16:32:64-S128"
target triple = "x86_64-pc-linux-gnu"

%struct._zval_struct = type { %union._zend_value, %union.anon, %union.anon.2 }
%union._zend_value = type { i64 }
%union.anon = type { i32 }
%union.anon.2 = type { i32 }
%struct._zend_refcounted_h = type { i32, %union.anon.3 }
%union.anon.3 = type { i32 }
%struct._zend_object_iterator_funcs = type { ptr, ptr, ptr, ptr, ptr, ptr, ptr, ptr }
%struct._spl_dllist_object = type { ptr, ptr, i32, i32, ptr, ptr, ptr, ptr, ptr, ptr, %struct._zend_object }
%struct._zend_object = type { %struct._zend_refcounted_h, i32, i32, ptr, ptr, ptr, [1 x %struct._zval_struct] }
%struct._spl_ptr_llist_element = type { ptr, ptr, %struct._zval_struct }
%struct._spl_dllist_it = type { %struct._zend_object_iterator, ptr, i32, i32 }
%struct._zend_object_iterator = type { %struct._zend_object, %struct._zval_struct, ptr, i64 }

@.str.70 = private unnamed_addr constant [53 x i8] c"An iterator cannot be used with foreach by reference\00", align 1
@spl_dllist_it_funcs = internal constant %struct._zend_object_iterator_funcs { ptr @spl_dllist_it_dtor, ptr @spl_dllist_it_valid, ptr @spl_dllist_it_get_current_data, ptr @spl_dllist_it_get_current_key, ptr @spl_dllist_it_move_forward, ptr @spl_dllist_it_rewind, ptr null, ptr null }, align 8

; Function Attrs: alwaysinline nounwind uwtable
define internal i32 @zend_gc_addref(ptr noundef %0) #6 {
  %2 = alloca ptr, align 8
  store ptr %0, ptr %2, align 8, !tbaa !77
  br label %3

3:                                                ; preds = %1
  br label %4

4:                                                ; preds = %3
  %5 = load ptr, ptr %2, align 8, !tbaa !77
  %6 = getelementptr inbounds nuw %struct._zend_refcounted_h, ptr %5, i32 0, i32 0
  %7 = load i32, ptr %6, align 4, !tbaa !79
  %8 = add i32 %7, 1
  store i32 %8, ptr %6, align 4, !tbaa !79
  ret i32 %8
}

; Function Attrs: inlinehint nounwind uwtable
define internal ptr @spl_dllist_from_obj(ptr noundef %0) #4 {
  %2 = alloca ptr, align 8
  store ptr %0, ptr %2, align 8, !tbaa !54
  %3 = load ptr, ptr %2, align 8, !tbaa !54
  %4 = getelementptr inbounds i8, ptr %3, i64 -72
  ret ptr %4
}

; Function Attrs: nounwind uwtable
define internal ptr @spl_dllist_get_iterator(ptr noundef %0, ptr noundef %1, i32 noundef %2) #0 {
  %4 = alloca ptr, align 8
  %5 = alloca ptr, align 8
  %6 = alloca ptr, align 8
  %7 = alloca i32, align 4
  %8 = alloca ptr, align 8
  %9 = alloca i32, align 4
  %10 = alloca ptr, align 8
  %11 = alloca ptr, align 8
  %12 = alloca ptr, align 8
  store ptr %0, ptr %5, align 8, !tbaa !67
  store ptr %1, ptr %6, align 8, !tbaa !9
  store i32 %2, ptr %7, align 4, !tbaa !64
  call void @llvm.lifetime.start.p0(i64 8, ptr %8) #14
  %13 = load ptr, ptr %6, align 8, !tbaa !9
  %14 = getelementptr inbounds nuw %struct._zval_struct, ptr %13, i32 0, i32 0
  %15 = load ptr, ptr %14, align 8, !tbaa !11
  %16 = call ptr @spl_dllist_from_obj(ptr noundef %15)
  store ptr %16, ptr %8, align 8, !tbaa !45
  %17 = load i32, ptr %7, align 4, !tbaa !64
  %18 = icmp ne i32 %17, 0
  br i1 %18, label %19, label %20

19:                                               ; preds = %3
  call void (ptr, ptr, ...) @zend_throw_error(ptr noundef null, ptr noundef @.str.70)
  store ptr null, ptr %4, align 8
  store i32 1, ptr %9, align 4
  br label %75

20:                                               ; preds = %3
  call void @llvm.lifetime.start.p0(i64 8, ptr %10) #14
  %21 = call noalias ptr @_emalloc_112()
  store ptr %21, ptr %10, align 8, !tbaa !116
  %22 = load ptr, ptr %10, align 8, !tbaa !116
  %23 = getelementptr inbounds nuw %struct._spl_dllist_it, ptr %22, i32 0, i32 0
  call void @zend_iterator_init(ptr noundef %23)
  br label %24

24:                                               ; preds = %20
  call void @llvm.lifetime.start.p0(i64 8, ptr %11) #14
  %25 = load ptr, ptr %10, align 8, !tbaa !116
  %26 = getelementptr inbounds nuw %struct._spl_dllist_it, ptr %25, i32 0, i32 0
  %27 = getelementptr inbounds nuw %struct._zend_object_iterator, ptr %26, i32 0, i32 1
  store ptr %27, ptr %11, align 8, !tbaa !9
  call void @llvm.lifetime.start.p0(i64 8, ptr %12) #14
  %28 = load ptr, ptr %6, align 8, !tbaa !9
  %29 = getelementptr inbounds nuw %struct._zval_struct, ptr %28, i32 0, i32 0
  %30 = load ptr, ptr %29, align 8, !tbaa !11
  store ptr %30, ptr %12, align 8, !tbaa !54
  %31 = load ptr, ptr %12, align 8, !tbaa !54
  %32 = getelementptr inbounds nuw %struct._zend_object, ptr %31, i32 0, i32 0
  %33 = call i32 @zend_gc_addref(ptr noundef %32)
  %34 = load ptr, ptr %12, align 8, !tbaa !54
  %35 = load ptr, ptr %11, align 8, !tbaa !9
  %36 = getelementptr inbounds nuw %struct._zval_struct, ptr %35, i32 0, i32 0
  store ptr %34, ptr %36, align 8, !tbaa !11
  %37 = load ptr, ptr %11, align 8, !tbaa !9
  %38 = getelementptr inbounds nuw %struct._zval_struct, ptr %37, i32 0, i32 1
  store i32 776, ptr %38, align 8, !tbaa !11
  call void @llvm.lifetime.end.p0(i64 8, ptr %12) #14
  call void @llvm.lifetime.end.p0(i64 8, ptr %11) #14
  br label %39

39:                                               ; preds = %24
  br label %40

40:                                               ; preds = %39
  %41 = load ptr, ptr %10, align 8, !tbaa !116
  %42 = getelementptr inbounds nuw %struct._spl_dllist_it, ptr %41, i32 0, i32 0
  %43 = getelementptr inbounds nuw %struct._zend_object_iterator, ptr %42, i32 0, i32 2
  store ptr @spl_dllist_it_funcs, ptr %43, align 8, !tbaa !118
  %44 = load ptr, ptr %8, align 8, !tbaa !45
  %45 = getelementptr inbounds nuw %struct._spl_dllist_object, ptr %44, i32 0, i32 2
  %46 = load i32, ptr %45, align 8, !tbaa !81
  %47 = load ptr, ptr %10, align 8, !tbaa !116
  %48 = getelementptr inbounds nuw %struct._spl_dllist_it, ptr %47, i32 0, i32 2
  store i32 %46, ptr %48, align 8, !tbaa !122
  %49 = load ptr, ptr %8, align 8, !tbaa !45
  %50 = getelementptr inbounds nuw %struct._spl_dllist_object, ptr %49, i32 0, i32 1
  %51 = load ptr, ptr %50, align 8, !tbaa !80
  %52 = load ptr, ptr %10, align 8, !tbaa !116
  %53 = getelementptr inbounds nuw %struct._spl_dllist_it, ptr %52, i32 0, i32 1
  store ptr %51, ptr %53, align 8, !tbaa !123
  %54 = load ptr, ptr %8, align 8, !tbaa !45
  %55 = getelementptr inbounds nuw %struct._spl_dllist_object, ptr %54, i32 0, i32 3
  %56 = load i32, ptr %55, align 4, !tbaa !73
  %57 = and i32 %56, 3
  %58 = load ptr, ptr %10, align 8, !tbaa !116
  %59 = getelementptr inbounds nuw %struct._spl_dllist_it, ptr %58, i32 0, i32 3
  store i32 %57, ptr %59, align 4, !tbaa !124
  %60 = load ptr, ptr %10, align 8, !tbaa !116
  %61 = getelementptr inbounds nuw %struct._spl_dllist_it, ptr %60, i32 0, i32 1
  %62 = load ptr, ptr %61, align 8, !tbaa !123
  %63 = icmp ne ptr %62, null
  br i1 %63, label %64, label %72

64:                                               ; preds = %40
  %65 = load ptr, ptr %10, align 8, !tbaa !116
  %66 = getelementptr inbounds nuw %struct._spl_dllist_it, ptr %65, i32 0, i32 1
  %67 = load ptr, ptr %66, align 8, !tbaa !123
  %68 = getelementptr inbounds nuw %struct._spl_ptr_llist_element, ptr %67, i32 0, i32 2
  %69 = getelementptr inbounds nuw %struct._zval_struct, ptr %68, i32 0, i32 2
  %70 = load i32, ptr %69, align 4, !tbaa !11
  %71 = add i32 %70, 1
  store i32 %71, ptr %69, align 4, !tbaa !11
  br label %72

72:                                               ; preds = %64, %40
  %73 = load ptr, ptr %10, align 8, !tbaa !116
  %74 = getelementptr inbounds nuw %struct._spl_dllist_it, ptr %73, i32 0, i32 0
  store ptr %74, ptr %4, align 8
  store i32 1, ptr %9, align 4
  call void @llvm.lifetime.end.p0(i64 8, ptr %10) #14
  br label %75

75:                                               ; preds = %72, %19
  call void @llvm.lifetime.end.p0(i64 8, ptr %8) #14
  %76 = load ptr, ptr %4, align 8
  ret ptr %76
}