; Function Attrs: nounwind uwtable
define internal noundef ptr @spl_dllist_get_iterator(ptr readnone captures(none) %0, ptr noundef readonly captures(none) %1, i32 noundef %2) #0 {
  %.not = icmp eq i32 %2, 0
  br i1 %.not, label %5, label %4

4:                                                ; preds = %3
  tail call void (ptr, ptr, ...) @zend_throw_error(ptr noundef null, ptr noundef nonnull @.str.70) #13
  br label %28

5:                                                ; preds = %3
  %6 = load ptr, ptr %1, align 8, !tbaa !4
  %7 = tail call noalias ptr @_emalloc_112() #13
  tail call void @zend_iterator_init(ptr noundef %7) #13
  %8 = getelementptr inbounds nuw i8, ptr %7, i64 56
  %9 = load ptr, ptr %1, align 8, !tbaa !4
  %10 = load i32, ptr %9, align 4, !tbaa !56
  %11 = add i32 %10, 1
  store i32 %11, ptr %9, align 4, !tbaa !56
  store ptr %9, ptr %8, align 8, !tbaa !4
  %12 = getelementptr inbounds nuw i8, ptr %7, i64 64
  store i32 776, ptr %12, align 8, !tbaa !4
  %13 = getelementptr inbounds nuw i8, ptr %7, i64 72
  store ptr @spl_dllist_it_funcs, ptr %13, align 8, !tbaa !113
  %14 = getelementptr inbounds i8, ptr %6, i64 -56
  %15 = load i32, ptr %14, align 8, !tbaa !72
  %16 = getelementptr inbounds nuw i8, ptr %7, i64 96
  store i32 %15, ptr %16, align 8, !tbaa !117
  %17 = getelementptr inbounds i8, ptr %6, i64 -64
  %18 = load ptr, ptr %17, align 8, !tbaa !71
  %19 = getelementptr inbounds nuw i8, ptr %7, i64 88
  store ptr %18, ptr %19, align 8, !tbaa !118
  %20 = getelementptr inbounds i8, ptr %6, i64 -52
  %21 = load i32, ptr %20, align 4, !tbaa !66
  %22 = and i32 %21, 3
  %23 = getelementptr inbounds nuw i8, ptr %7, i64 100
  store i32 %22, ptr %23, align 4, !tbaa !119
  %.not20 = icmp eq ptr %18, null
  br i1 %.not20, label %28, label %24

24:                                               ; preds = %5
  %25 = getelementptr inbounds nuw i8, ptr %18, i64 28
  %26 = load i32, ptr %25, align 4, !tbaa !4
  %27 = add i32 %26, 1
  store i32 %27, ptr %25, align 4, !tbaa !4
  br label %28

28:                                               ; preds = %5, %24, %4
  %.0 = phi ptr [ null, %4 ], [ %7, %24 ], [ %7, %5 ]
  ret ptr %.0
}